; Function Attrs: mustprogress nofree norecurse nosync nounwind willreturn memory(argmem: readwrite, inaccessiblemem: write) uwtable
define dso_local void @_ZN20cmPropertyDefinitionC2ENSt7__cxx1112basic_stringIcSt11char_traitsIcESaIcEEES5_bS5_(ptr noundef nonnull align 8 dereferenceable(104) %0, ptr noundef %1, ptr noundef %2, i1 noundef zeroext %3, ptr noundef %4) unnamed_addr #0 align 2 personality ptr @__gxx_personality_v0 {
  %6 = zext i1 %3 to i8
  %7 = getelementptr inbounds nuw i8, ptr %0, i64 16
  store ptr %7, ptr %0, align 8, !tbaa !4
  %8 = load ptr, ptr %1, align 8, !tbaa !10
  %9 = getelementptr inbounds nuw i8, ptr %1, i64 16
  %10 = icmp eq ptr %8, %9
  br i1 %10, label %11, label %_ZNKSt7__cxx1112basic_stringIcSt11char_traitsIcESaIcEE11_M_is_localEv.exit.i

11:                                               ; preds = %5
  %12 = getelementptr inbounds nuw i8, ptr %1, i64 8
  %13 = load i64, ptr %12, align 8, !tbaa !13
  %14 = icmp ult i64 %13, 16
  tail call void @llvm.assume(i1 %14)
  %15 = add nuw nsw i64 %13, 1
  tail call void @llvm.memcpy.p0.p0.i64(ptr noundef nonnull align 8 dereferenceable(1) %7, ptr noundef nonnull align 8 dereferenceable(1) %9, i64 %15, i1 false)
  br label %_ZNSt7__cxx1112basic_stringIcSt11char_traitsIcESaIcEEC2EOS4_.exit

_ZNKSt7__cxx1112basic_stringIcSt11char_traitsIcESaIcEE11_M_is_localEv.exit.i: ; preds = %5
  store ptr %8, ptr %0, align 8, !tbaa !10
  %16 = load i64, ptr %9, align 8, !tbaa !14
  store i64 %16, ptr %7, align 8, !tbaa !14
  br label %_ZNSt7__cxx1112basic_stringIcSt11char_traitsIcESaIcEEC2EOS4_.exit

_ZNSt7__cxx1112basic_stringIcSt11char_traitsIcESaIcEEC2EOS4_.exit: ; preds = %11, %_ZNKSt7__cxx1112basic_stringIcSt11char_traitsIcESaIcEE11_M_is_localEv.exit.i
  %17 = getelementptr inbounds nuw i8, ptr %1, i64 8
  %18 = load i64, ptr %17, align 8, !tbaa !13
  %19 = getelementptr inbounds nuw i8, ptr %0, i64 8
  store i64 %18, ptr %19, align 8, !tbaa !13
  store ptr %9, ptr %1, align 8, !tbaa !10
  store i64 0, ptr %17, align 8, !tbaa !13
  store i8 0, ptr %9, align 1, !tbaa !14
  %20 = getelementptr inbounds nuw i8, ptr %0, i64 32
  %21 = getelementptr inbounds nuw i8, ptr %0, i64 48
  store ptr %21, ptr %20, align 8, !tbaa !4
  %22 = load ptr, ptr %2, align 8, !tbaa !10
  %23 = getelementptr inbounds nuw i8, ptr %2, i64 16
  %24 = icmp eq ptr %22, %23
  br i1 %24, label %25, label %_ZNKSt7__cxx1112basic_stringIcSt11char_traitsIcESaIcEE11_M_is_localEv.exit.i1

25:                                               ; preds = %_ZNSt7__cxx1112basic_stringIcSt11char_traitsIcESaIcEEC2EOS4_.exit
  %26 = getelementptr inbounds nuw i8, ptr %2, i64 8
  %27 = load i64, ptr %26, align 8, !tbaa !13
  %28 = icmp ult i64 %27, 16
  tail call void @llvm.assume(i1 %28)
  %29 = add nuw nsw i64 %27, 1
  tail call void @llvm.memcpy.p0.p0.i64(ptr noundef nonnull align 8 dereferenceable(1) %21, ptr noundef nonnull align 8 dereferenceable(1) %23, i64 %29, i1 false)
  br label %_ZNSt7__cxx1112basic_stringIcSt11char_traitsIcESaIcEEC2EOS4_.exit2

_ZNKSt7__cxx1112basic_stringIcSt11char_traitsIcESaIcEE11_M_is_localEv.exit.i1: ; preds = %_ZNSt7__cxx1112basic_stringIcSt11char_traitsIcESaIcEEC2EOS4_.exit
  store ptr %22, ptr %20, align 8, !tbaa !10
  %30 = load i64, ptr %23, align 8, !tbaa !14
  store i64 %30, ptr %21, align 8, !tbaa !14
  br label %_ZNSt7__cxx1112basic_stringIcSt11char_traitsIcESaIcEEC2EOS4_.exit2

_ZNSt7__cxx1112basic_stringIcSt11char_traitsIcESaIcEEC2EOS4_.exit2: ; preds = %25, %_ZNKSt7__cxx1112basic_stringIcSt11char_traitsIcESaIcEE11_M_is_localEv.exit.i1
  %31 = getelementptr inbounds nuw i8, ptr %2, i64 8
  %32 = load i64, ptr %31, align 8, !tbaa !13
  %33 = getelementptr inbounds nuw i8, ptr %0, i64 40
  store i64 %32, ptr %33, align 8, !tbaa !13
  store ptr %23, ptr %2, align 8, !tbaa !10
  store i64 0, ptr %31, align 8, !tbaa !13
  store i8 0, ptr %23, align 1, !tbaa !14
  %34 = getelementptr inbounds nuw i8, ptr %0, i64 64
  store i8 %6, ptr %34, align 8, !tbaa !15
  %35 = getelementptr inbounds nuw i8, ptr %0, i64 72
  %36 = getelementptr inbounds nuw i8, ptr %0, i64 88
  store ptr %36, ptr %35, align 8, !tbaa !4
  %37 = load ptr, ptr %4, align 8, !tbaa !10
  %38 = getelementptr inbounds nuw i8, ptr %4, i64 16
  %39 = icmp eq ptr %37, %38
  br i1 %39, label %40, label %_ZNKSt7__cxx1112basic_stringIcSt11char_traitsIcESaIcEE11_M_is_localEv.exit.i3

40:                                               ; preds = %_ZNSt7__cxx1112basic_stringIcSt11char_traitsIcESaIcEEC2EOS4_.exit2
  %41 = getelementptr inbounds nuw i8, ptr %4, i64 8
  %42 = load i64, ptr %41, align 8, !tbaa !13
  %43 = icmp ult i64 %42, 16
  tail call void @llvm.assume(i1 %43)
  %44 = add nuw nsw i64 %42, 1
  tail call void @llvm.memcpy.p0.p0.i64(ptr noundef nonnull align 8 dereferenceable(1) %36, ptr noundef nonnull align 8 dereferenceable(1) %38, i64 %44, i1 false)
  br label %_ZNSt7__cxx1112basic_stringIcSt11char_traitsIcESaIcEEC2EOS4_.exit4

_ZNKSt7__cxx1112basic_stringIcSt11char_traitsIcESaIcEE11_M_is_localEv.exit.i3: ; preds = %_ZNSt7__cxx1112basic_stringIcSt11char_traitsIcESaIcEEC2EOS4_.exit2
  store ptr %37, ptr %35, align 8, !tbaa !10
  %45 = load i64, ptr %38, align 8, !tbaa !14
  store i64 %45, ptr %36, align 8, !tbaa !14
  br label %_ZNSt7__cxx1112basic_stringIcSt11char_traitsIcESaIcEEC2EOS4_.exit4

_ZNSt7__cxx1112basic_stringIcSt11char_traitsIcESaIcEEC2EOS4_.exit4: ; preds = %40, %_ZNKSt7__cxx1112basic_stringIcSt11char_traitsIcESaIcEE11_M_is_localEv.exit.i3
  %46 = getelementptr inbounds nuw i8, ptr %4, i64 8
  %47 = load i64, ptr %46, align 8, !tbaa !13
  %48 = getelementptr inbounds nuw i8, ptr %0, i64 80
  store i64 %47, ptr %48, align 8, !tbaa !13
  store ptr %38, ptr %4, align 8, !tbaa !10
  store i64 0, ptr %46, align 8, !tbaa !13
  store i8 0, ptr %38, align 1, !tbaa !14
  ret void
}